target datalayout = "e-m:e-p270:32:32-p271:32:32-p272:64:64-i64:64-i128:128-f80:128-n8:16:32:64-S128"
target triple = "x86_64-unknown-linux-gnu"

%"class.openvdb::v11_0::math::Mat3" = type { %"class.openvdb::v11_0::math::Mat.9" }
%"class.openvdb::v11_0::math::Mat.9" = type { [9 x double] }
%"class.openvdb::v11_0::math::Mat4" = type { %"class.openvdb::v11_0::math::Mat" }
%"class.openvdb::v11_0::math::Mat" = type { [16 x double] }
%"class.std::shared_ptr" = type { %"class.std::__shared_ptr" }
%"class.std::__shared_ptr" = type { ptr, %"class.std::__shared_count" }
%"class.std::__shared_count" = type { ptr }
%"class.openvdb::v11_0::math::Vec3" = type { %"class.openvdb::v11_0::math::Tuple" }
%"class.openvdb::v11_0::math::Tuple" = type { [3 x double] }
%"class.openvdb::v11_0::math::MapBase" = type { ptr }
%"class.std::shared_ptr.6" = type { %"class.std::__shared_ptr.7" }
%"class.std::__shared_ptr.7" = type { ptr, %"class.std::__shared_count" }
%"class.openvdb::v11_0::math::AffineMap" = type <{ %"class.openvdb::v11_0::math::MapBase", %"class.openvdb::v11_0::math::Mat4", %"class.openvdb::v11_0::math::Mat4", %"class.openvdb::v11_0::math::Mat3", double, %"class.openvdb::v11_0::math::Vec3", i8, i8, [6 x i8] }>
%"class.openvdb::v11_0::math::NonlinearFrustumMap" = type <{ %"class.openvdb::v11_0::math::MapBase", %"class.openvdb::v11_0::math::BBox", double, double, %"class.openvdb::v11_0::math::AffineMap", double, double, double, double, double, double, double, double, i8, [7 x i8] }>
%"class.openvdb::v11_0::math::BBox" = type { %"class.openvdb::v11_0::math::Vec3", %"class.openvdb::v11_0::math::Vec3" }

@_ZN7openvdb5v11_04math9TransformC1ERKSt10shared_ptrINS1_7MapBaseEE = unnamed_addr alias void (ptr, ptr), ptr @_ZN7openvdb5v11_04math9TransformC2ERKSt10shared_ptrINS1_7MapBaseEE

; Function Attrs: mustprogress nounwind uwtable
define linkonce_odr void @_ZNSt12__shared_ptrIN7openvdb5v11_04math9TransformELN9__gnu_cxx12_Lock_policyE2EE31_M_enable_shared_from_this_withIS3_S3_EENSt9enable_ifIXntsr15__has_esft_baseIT0_EE5valueEvE4typeEPT_(ptr noundef nonnull align 8 dereferenceable(16) %this, ptr noundef %0) #5 comdat align 2 {
entry:
  %this.addr = alloca ptr, align 8
  %.addr = alloca ptr, align 8
  store ptr %this, ptr %this.addr, align 8
  store ptr %0, ptr %.addr, align 8
  ret void
}

; Function Attrs: mustprogress uwtable
define linkonce_odr void @_ZNSt14__shared_countILN9__gnu_cxx12_Lock_policyE2EEC2IPN7openvdb5v11_04math9TransformEEET_St17integral_constantIbLb0EE(ptr noundef nonnull align 8 dereferenceable(8) %this, ptr noundef %__p) unnamed_addr #4 comdat align 2 {
entry:
  %this.addr = alloca ptr, align 8
  %__p.addr = alloca ptr, align 8
  store ptr %this, ptr %this.addr, align 8
  store ptr %__p, ptr %__p.addr, align 8
  %this1 = load ptr, ptr %this.addr, align 8
  %0 = load ptr, ptr %__p.addr, align 8
  call void @_ZNSt14__shared_countILN9__gnu_cxx12_Lock_policyE2EEC2IPN7openvdb5v11_04math9TransformEEET_(ptr noundef nonnull align 8 dereferenceable(8) %this1, ptr noundef %0)
  ret void
}

; Function Attrs: mustprogress uwtable
define linkonce_odr void @_ZNSt12__shared_ptrIN7openvdb5v11_04math9TransformELN9__gnu_cxx12_Lock_policyE2EEC2IS3_vEEPT_(ptr noundef nonnull align 8 dereferenceable(16) %this, ptr noundef %__p) unnamed_addr #4 comdat align 2 {
entry:
  %this.addr = alloca ptr, align 8
  %__p.addr = alloca ptr, align 8
  store ptr %this, ptr %this.addr, align 8
  store ptr %__p, ptr %__p.addr, align 8
  %this1 = load ptr, ptr %this.addr, align 8
  %_M_ptr = getelementptr inbounds %"class.std::__shared_ptr.7", ptr %this1, i32 0, i32 0
  %0 = load ptr, ptr %__p.addr, align 8
  store ptr %0, ptr %_M_ptr, align 8
  %_M_refcount = getelementptr inbounds %"class.std::__shared_ptr.7", ptr %this1, i32 0, i32 1
  %1 = load ptr, ptr %__p.addr, align 8
  call void @_ZNSt14__shared_countILN9__gnu_cxx12_Lock_policyE2EEC2IPN7openvdb5v11_04math9TransformEEET_St17integral_constantIbLb0EE(ptr noundef nonnull align 8 dereferenceable(8) %_M_refcount, ptr noundef %1)
  %2 = load ptr, ptr %__p.addr, align 8
  call void @_ZNSt12__shared_ptrIN7openvdb5v11_04math9TransformELN9__gnu_cxx12_Lock_policyE2EE31_M_enable_shared_from_this_withIS3_S3_EENSt9enable_ifIXntsr15__has_esft_baseIT0_EE5valueEvE4typeEPT_(ptr noundef nonnull align 8 dereferenceable(16) %this1, ptr noundef %2) #3
  ret void
}

; Function Attrs: mustprogress nounwind uwtable
define linkonce_odr void @_ZN7openvdb5v11_04math7MapBaseD2Ev(ptr noundef nonnull align 8 dereferenceable(8) %this) unnamed_addr #5 comdat align 2 {
entry:
  %this.addr = alloca ptr, align 8
  store ptr %this, ptr %this.addr, align 8
  ret void
}

; Function Attrs: mustprogress nounwind uwtable
define linkonce_odr void @_ZN7openvdb5v11_04math9AffineMapD2Ev(ptr noundef nonnull align 8 dereferenceable(376) %this) unnamed_addr #5 comdat align 2 {
entry:
  %this.addr = alloca ptr, align 8
  store ptr %this, ptr %this.addr, align 8
  %this1 = load ptr, ptr %this.addr, align 8
  call void @_ZN7openvdb5v11_04math7MapBaseD2Ev(ptr noundef nonnull align 8 dereferenceable(8) %this1) #3
  ret void
}

; Function Attrs: mustprogress nounwind uwtable
define linkonce_odr void @_ZN7openvdb5v11_04math7MapBaseC2Ev(ptr noundef nonnull align 8 dereferenceable(8) %this) unnamed_addr #5 comdat align 2 {
entry:
  %this.addr = alloca ptr, align 8
  store ptr %this, ptr %this.addr, align 8
  %this1 = load ptr, ptr %this.addr, align 8
  store ptr getelementptr inbounds ({ [38 x ptr] }, ptr @_ZTVN7openvdb5v11_04math7MapBaseE, i32 0, i32 0, i32 2), ptr %this1, align 8
  ret void
}

; Function Attrs: mustprogress nounwind uwtable
define linkonce_odr void @_ZN7openvdb5v11_04math19NonlinearFrustumMapD2Ev(ptr noundef nonnull align 8 dereferenceable(520) %this) unnamed_addr #5 comdat align 2 {
entry:
  %this.addr = alloca ptr, align 8
  store ptr %this, ptr %this.addr, align 8
  %this1 = load ptr, ptr %this.addr, align 8
  %mSecondMap = getelementptr inbounds %"class.openvdb::v11_0::math::NonlinearFrustumMap", ptr %this1, i32 0, i32 4
  call void @_ZN7openvdb5v11_04math9AffineMapD2Ev(ptr noundef nonnull align 8 dereferenceable(376) %mSecondMap) #3
  call void @_ZN7openvdb5v11_04math7MapBaseD2Ev(ptr noundef nonnull align 8 dereferenceable(8) %this1) #3
  ret void
}

; Function Attrs: mustprogress uwtable
define linkonce_odr void @_ZNSt10shared_ptrIN7openvdb5v11_04math9TransformEEC2IS3_vEEPT_(ptr noundef nonnull align 8 dereferenceable(16) %this, ptr noundef %__p) unnamed_addr #4 comdat align 2 {
entry:
  %this.addr = alloca ptr, align 8
  %__p.addr = alloca ptr, align 8
  store ptr %this, ptr %this.addr, align 8
  store ptr %__p, ptr %__p.addr, align 8
  %this1 = load ptr, ptr %this.addr, align 8
  %0 = load ptr, ptr %__p.addr, align 8
  call void @_ZNSt12__shared_ptrIN7openvdb5v11_04math9TransformELN9__gnu_cxx12_Lock_policyE2EEC2IS3_vEEPT_(ptr noundef nonnull align 8 dereferenceable(16) %this1, ptr noundef %0)
  ret void
}

; Function Attrs: mustprogress nounwind uwtable
define linkonce_odr void @_ZN7openvdb5v11_04math4Vec3IdEC2Eddd(ptr noundef nonnull align 8 dereferenceable(24) %this, double noundef %x, double noundef %y, double noundef %z) unnamed_addr #5 comdat align 2 {
entry:
  %this.addr = alloca ptr, align 8
  %x.addr = alloca double, align 8
  %y.addr = alloca double, align 8
  %z.addr = alloca double, align 8
  store ptr %this, ptr %this.addr, align 8
  store double %x, ptr %x.addr, align 8
  store double %y, ptr %y.addr, align 8
  store double %z, ptr %z.addr, align 8
  %this1 = load ptr, ptr %this.addr, align 8
  %0 = load double, ptr %x.addr, align 8
  %mm = getelementptr inbounds %"class.openvdb::v11_0::math::Tuple", ptr %this1, i32 0, i32 0
  %arrayidx = getelementptr inbounds [3 x double], ptr %mm, i64 0, i64 0
  store double %0, ptr %arrayidx, align 8
  %1 = load double, ptr %y.addr, align 8
  %mm2 = getelementptr inbounds %"class.openvdb::v11_0::math::Tuple", ptr %this1, i32 0, i32 0
  %arrayidx3 = getelementptr inbounds [3 x double], ptr %mm2, i64 0, i64 1
  store double %1, ptr %arrayidx3, align 8
  %2 = load double, ptr %z.addr, align 8
  %mm4 = getelementptr inbounds %"class.openvdb::v11_0::math::Tuple", ptr %this1, i32 0, i32 0
  %arrayidx5 = getelementptr inbounds [3 x double], ptr %mm4, i64 0, i64 2
  store double %2, ptr %arrayidx5, align 8
  ret void
}

; Function Attrs: mustprogress uwtable
define linkonce_odr void @_ZN7openvdb5v11_04math19NonlinearFrustumMapC2ERKNS1_4BBoxINS1_4Vec3IdEEEEdd(ptr noundef nonnull align 8 dereferenceable(520) %this, ptr noundef nonnull align 8 dereferenceable(48) %bb, double noundef %taper, double noundef %depth) unnamed_addr #4 comdat align 2 personality ptr @__gxx_personality_v0 {
entry:
  %this.addr = alloca ptr, align 8
  %bb.addr = alloca ptr, align 8
  %taper.addr = alloca double, align 8
  %depth.addr = alloca double, align 8
  %exn.slot = alloca ptr, align 8
  %ehselector.slot = alloca i32, align 4
  store ptr %this, ptr %this.addr, align 8
  store ptr %bb, ptr %bb.addr, align 8
  store double %taper, ptr %taper.addr, align 8
  store double %depth, ptr %depth.addr, align 8
  %this1 = load ptr, ptr %this.addr, align 8
  call void @_ZN7openvdb5v11_04math7MapBaseC2Ev(ptr noundef nonnull align 8 dereferenceable(8) %this1)
  store ptr getelementptr inbounds ({ [38 x ptr] }, ptr @_ZTVN7openvdb5v11_04math19NonlinearFrustumMapE, i32 0, i32 0, i32 2), ptr %this1, align 8
  %mBBox = getelementptr inbounds %"class.openvdb::v11_0::math::NonlinearFrustumMap", ptr %this1, i32 0, i32 1
  %0 = load ptr, ptr %bb.addr, align 8
  call void @llvm.memcpy.p0.p0.i64(ptr align 8 %mBBox, ptr align 8 %0, i64 48, i1 false)
  %mTaper = getelementptr inbounds %"class.openvdb::v11_0::math::NonlinearFrustumMap", ptr %this1, i32 0, i32 2
  %1 = load double, ptr %taper.addr, align 8
  store double %1, ptr %mTaper, align 8
  %mDepth = getelementptr inbounds %"class.openvdb::v11_0::math::NonlinearFrustumMap", ptr %this1, i32 0, i32 3
  %2 = load double, ptr %depth.addr, align 8
  store double %2, ptr %mDepth, align 8
  %mSecondMap = getelementptr inbounds %"class.openvdb::v11_0::math::NonlinearFrustumMap", ptr %this1, i32 0, i32 4
  invoke void @_ZN7openvdb5v11_04math9AffineMapC2Ev(ptr noundef nonnull align 8 dereferenceable(376) %mSecondMap)
          to label %invoke.cont unwind label %lpad

invoke.cont:                                      ; preds = %entry
  invoke void @_ZN7openvdb5v11_04math19NonlinearFrustumMap4initEv(ptr noundef nonnull align 8 dereferenceable(520) %this1)
          to label %invoke.cont3 unwind label %lpad2

invoke.cont3:                                     ; preds = %invoke.cont
  ret void

lpad:                                             ; preds = %entry
  %3 = landingpad { ptr, i32 }
          cleanup
  %4 = extractvalue { ptr, i32 } %3, 0
  store ptr %4, ptr %exn.slot, align 8
  %5 = extractvalue { ptr, i32 } %3, 1
  store i32 %5, ptr %ehselector.slot, align 4
  br label %ehcleanup

lpad2:                                            ; preds = %invoke.cont
  %6 = landingpad { ptr, i32 }
          cleanup
  %7 = extractvalue { ptr, i32 } %6, 0
  store ptr %7, ptr %exn.slot, align 8
  %8 = extractvalue { ptr, i32 } %6, 1
  store i32 %8, ptr %ehselector.slot, align 4
  call void @_ZN7openvdb5v11_04math9AffineMapD2Ev(ptr noundef nonnull align 8 dereferenceable(376) %mSecondMap) #3
  br label %ehcleanup

ehcleanup:                                        ; preds = %lpad2, %lpad
  call void @_ZN7openvdb5v11_04math7MapBaseD2Ev(ptr noundef nonnull align 8 dereferenceable(8) %this1) #3
  br label %eh.resume

eh.resume:                                        ; preds = %ehcleanup
  %exn = load ptr, ptr %exn.slot, align 8
  %sel = load i32, ptr %ehselector.slot, align 4
  %lpad.val = insertvalue { ptr, i32 } poison, ptr %exn, 0
  %lpad.val4 = insertvalue { ptr, i32 } %lpad.val, i32 %sel, 1
  resume { ptr, i32 } %lpad.val4
}

; Function Attrs: mustprogress uwtable
define void @_ZN7openvdb5v11_04math9Transform22createFrustumTransformERKNS1_4BBoxINS1_4Vec3IdEEEEddd(ptr noalias sret(%"class.std::shared_ptr.6") align 8 %agg.result, ptr noundef nonnull align 8 dereferenceable(48) %bbox, double noundef %taper, double noundef %depth, double noundef %voxelDim) #4 align 2 personality ptr @__gxx_personality_v0 {
entry:
  %result.ptr = alloca ptr, align 8
  %bbox.addr = alloca ptr, align 8
  %taper.addr = alloca double, align 8
  %depth.addr = alloca double, align 8
  %voxelDim.addr = alloca double, align 8
  %ref.tmp = alloca %"class.std::shared_ptr", align 8
  %ref.tmp1 = alloca %"class.openvdb::v11_0::math::NonlinearFrustumMap", align 8
  %exn.slot = alloca ptr, align 8
  %ehselector.slot = alloca i32, align 4
  %ref.tmp2 = alloca %"class.openvdb::v11_0::math::Vec3", align 8
  %cleanup.isactive = alloca i1, align 1
  store ptr %agg.result, ptr %result.ptr, align 8
  store ptr %bbox, ptr %bbox.addr, align 8
  store double %taper, ptr %taper.addr, align 8
  store double %depth, ptr %depth.addr, align 8
  store double %voxelDim, ptr %voxelDim.addr, align 8
  %call = call noalias noundef nonnull ptr @_Znwm(i64 noundef 16) #15
  store i1 true, ptr %cleanup.isactive, align 1
  %0 = load ptr, ptr %bbox.addr, align 8
  %1 = load double, ptr %taper.addr, align 8
  %2 = load double, ptr %depth.addr, align 8
  invoke void @_ZN7openvdb5v11_04math19NonlinearFrustumMapC2ERKNS1_4BBoxINS1_4Vec3IdEEEEdd(ptr noundef nonnull align 8 dereferenceable(520) %ref.tmp1, ptr noundef nonnull align 8 dereferenceable(48) %0, double noundef %1, double noundef %2)
          to label %invoke.cont unwind label %lpad

invoke.cont:                                      ; preds = %entry
  %3 = load double, ptr %voxelDim.addr, align 8
  %4 = load double, ptr %voxelDim.addr, align 8
  %5 = load double, ptr %voxelDim.addr, align 8
  invoke void @_ZN7openvdb5v11_04math4Vec3IdEC2Eddd(ptr noundef nonnull align 8 dereferenceable(24) %ref.tmp2, double noundef %3, double noundef %4, double noundef %5)
          to label %invoke.cont4 unwind label %lpad3

invoke.cont4:                                     ; preds = %invoke.cont
  invoke void @_ZNK7openvdb5v11_04math19NonlinearFrustumMap8preScaleERKNS1_4Vec3IdEE(ptr sret(%"class.std::shared_ptr") align 8 %ref.tmp, ptr noundef nonnull align 8 dereferenceable(520) %ref.tmp1, ptr noundef nonnull align 8 dereferenceable(24) %ref.tmp2)
          to label %invoke.cont5 unwind label %lpad3

invoke.cont5:                                     ; preds = %invoke.cont4
  invoke void @_ZN7openvdb5v11_04math9TransformC1ERKSt10shared_ptrINS1_7MapBaseEE(ptr noundef nonnull align 8 dereferenceable(16) %call, ptr noundef nonnull align 8 dereferenceable(16) %ref.tmp)
          to label %invoke.cont7 unwind label %lpad6

invoke.cont7:                                     ; preds = %invoke.cont5
  store i1 false, ptr %cleanup.isactive, align 1
  invoke void @_ZNSt10shared_ptrIN7openvdb5v11_04math9TransformEEC2IS3_vEEPT_(ptr noundef nonnull align 8 dereferenceable(16) %agg.result, ptr noundef %call)
          to label %invoke.cont8 unwind label %lpad6

invoke.cont8:                                     ; preds = %invoke.cont7
  call void @_ZNSt10shared_ptrIN7openvdb5v11_04math7MapBaseEED2Ev(ptr noundef nonnull align 8 dereferenceable(16) %ref.tmp) #3
  call void @_ZN7openvdb5v11_04math19NonlinearFrustumMapD2Ev(ptr noundef nonnull align 8 dereferenceable(520) %ref.tmp1) #3
  ret void

lpad:                                             ; preds = %entry
  %6 = landingpad { ptr, i32 }
          cleanup
  %7 = extractvalue { ptr, i32 } %6, 0
  store ptr %7, ptr %exn.slot, align 8
  %8 = extractvalue { ptr, i32 } %6, 1
  store i32 %8, ptr %ehselector.slot, align 4
  br label %ehcleanup9

lpad3:                                            ; preds = %invoke.cont4, %invoke.cont
  %9 = landingpad { ptr, i32 }
          cleanup
  %10 = extractvalue { ptr, i32 } %9, 0
  store ptr %10, ptr %exn.slot, align 8
  %11 = extractvalue { ptr, i32 } %9, 1
  store i32 %11, ptr %ehselector.slot, align 4
  br label %ehcleanup

lpad6:                                            ; preds = %invoke.cont7, %invoke.cont5
  %12 = landingpad { ptr, i32 }
          cleanup
  %13 = extractvalue { ptr, i32 } %12, 0
  store ptr %13, ptr %exn.slot, align 8
  %14 = extractvalue { ptr, i32 } %12, 1
  store i32 %14, ptr %ehselector.slot, align 4
  call void @_ZNSt10shared_ptrIN7openvdb5v11_04math7MapBaseEED2Ev(ptr noundef nonnull align 8 dereferenceable(16) %ref.tmp) #3
  br label %ehcleanup

ehcleanup:                                        ; preds = %lpad6, %lpad3
  call void @_ZN7openvdb5v11_04math19NonlinearFrustumMapD2Ev(ptr noundef nonnull align 8 dereferenceable(520) %ref.tmp1) #3
  br label %ehcleanup9

ehcleanup9:                                       ; preds = %ehcleanup, %lpad
  %cleanup.is_active = load i1, ptr %cleanup.isactive, align 1
  br i1 %cleanup.is_active, label %cleanup.action, label %cleanup.done

cleanup.action:                                   ; preds = %ehcleanup9
  call void @_ZdlPv(ptr noundef %call) #16
  br label %cleanup.done

cleanup.done:                                     ; preds = %cleanup.action, %ehcleanup9
  br label %eh.resume

eh.resume:                                        ; preds = %cleanup.done
  %exn = load ptr, ptr %exn.slot, align 8
  %sel = load i32, ptr %ehselector.slot, align 4
  %lpad.val = insertvalue { ptr, i32 } poison, ptr %exn, 0
  %lpad.val10 = insertvalue { ptr, i32 } %lpad.val, i32 %sel, 1
  resume { ptr, i32 } %lpad.val10
}