; Function Attrs: mustprogress uwtable
define void @_ZN7openvdb5v11_04math9Transform22createFrustumTransformERKNS1_4BBoxINS1_4Vec3IdEEEEddd(ptr noalias sret(%"class.std::shared_ptr.6") align 8 %agg.result, ptr nocapture noundef nonnull readonly align 8 dereferenceable(48) %bbox, double noundef %taper, double noundef %depth, double noundef %voxelDim) local_unnamed_addr #3 align 2 personality ptr @__gxx_personality_v0 {
entry:
  %ref.tmp = alloca %"class.std::shared_ptr", align 8
  %ref.tmp1 = alloca %"class.openvdb::v11_0::math::NonlinearFrustumMap", align 8
  %ref.tmp2 = alloca %"class.openvdb::v11_0::math::Vec3", align 8
  %call = tail call noalias noundef nonnull dereferenceable(16) ptr @_Znwm(i64 noundef 16) #22
  store ptr getelementptr inbounds ({ [38 x ptr] }, ptr @_ZTVN7openvdb5v11_04math19NonlinearFrustumMapE, i64 0, i32 0, i64 2), ptr %ref.tmp1, align 8
  %mBBox.i = getelementptr inbounds i8, ptr %ref.tmp1, i64 8
  call void @llvm.memcpy.p0.p0.i64(ptr noundef nonnull align 8 dereferenceable(48) %mBBox.i, ptr noundef nonnull align 8 dereferenceable(48) %bbox, i64 48, i1 false)
  %mTaper.i = getelementptr inbounds i8, ptr %ref.tmp1, i64 56
  store double %taper, ptr %mTaper.i, align 8
  %mDepth.i = getelementptr inbounds i8, ptr %ref.tmp1, i64 64
  store double %depth, ptr %mDepth.i, align 8
  %mSecondMap.i = getelementptr inbounds i8, ptr %ref.tmp1, i64 72
  invoke void @_ZN7openvdb5v11_04math9AffineMapC2Ev(ptr noundef nonnull align 8 dereferenceable(376) %mSecondMap.i)
          to label %.noexc unwind label %lpad

.noexc:                                           ; preds = %entry
  invoke void @_ZN7openvdb5v11_04math19NonlinearFrustumMap4initEv(ptr noundef nonnull align 8 dereferenceable(520) %ref.tmp1)
          to label %invoke.cont unwind label %lpad

invoke.cont:                                      ; preds = %.noexc
  store double %voxelDim, ptr %ref.tmp2, align 8
  %arrayidx3.i = getelementptr inbounds i8, ptr %ref.tmp2, i64 8
  store double %voxelDim, ptr %arrayidx3.i, align 8
  %arrayidx5.i = getelementptr inbounds i8, ptr %ref.tmp2, i64 16
  store double %voxelDim, ptr %arrayidx5.i, align 8
  invoke void @_ZNK7openvdb5v11_04math19NonlinearFrustumMap8preScaleERKNS1_4Vec3IdEE(ptr nonnull sret(%"class.std::shared_ptr") align 8 %ref.tmp, ptr noundef nonnull align 8 dereferenceable(520) %ref.tmp1, ptr noundef nonnull align 8 dereferenceable(24) %ref.tmp2)
          to label %invoke.cont5 unwind label %lpad3

invoke.cont5:                                     ; preds = %invoke.cont
  invoke void @_ZN7openvdb5v11_04math9TransformC1ERKSt10shared_ptrINS1_7MapBaseEE(ptr noundef nonnull align 8 dereferenceable(16) %call, ptr noundef nonnull align 8 dereferenceable(16) %ref.tmp)
          to label %invoke.cont7 unwind label %ehcleanup9.thread12

ehcleanup9.thread12:                              ; preds = %invoke.cont5
  %0 = landingpad { ptr, i32 }
          cleanup
  call void @_ZNSt10shared_ptrIN7openvdb5v11_04math7MapBaseEED2Ev(ptr noundef nonnull align 8 dereferenceable(16) %ref.tmp) #23
  br label %cleanup.action

invoke.cont7:                                     ; preds = %invoke.cont5
  store ptr %call, ptr %agg.result, align 8
  %_M_refcount.i.i = getelementptr inbounds i8, ptr %agg.result, i64 8
  invoke void @_ZNSt14__shared_countILN9__gnu_cxx12_Lock_policyE2EEC2IPN7openvdb5v11_04math9TransformEEET_(ptr noundef nonnull align 8 dereferenceable(8) %_M_refcount.i.i, ptr noundef nonnull %call)
          to label %invoke.cont8 unwind label %ehcleanup9

invoke.cont8:                                     ; preds = %invoke.cont7
  %_M_refcount.i.i7 = getelementptr inbounds i8, ptr %ref.tmp, i64 8
  %1 = load ptr, ptr %_M_refcount.i.i7, align 8
  %cmp.not.i.i.i = icmp eq ptr %1, null
  br i1 %cmp.not.i.i.i, label %_ZNSt10shared_ptrIN7openvdb5v11_04math7MapBaseEED2Ev.exit, label %if.then.i.i.i

if.then.i.i.i:                                    ; preds = %invoke.cont8
  %_M_use_count.i.i.i.i = getelementptr inbounds i8, ptr %1, i64 8
  %2 = load atomic i64, ptr %_M_use_count.i.i.i.i acquire, align 8
  %cmp.i.i.i.i = icmp eq i64 %2, 4294967297
  %3 = trunc i64 %2 to i32
  br i1 %cmp.i.i.i.i, label %if.then.i.i.i.i, label %if.end.i.i.i.i

if.then.i.i.i.i:                                  ; preds = %if.then.i.i.i
  store i32 0, ptr %_M_use_count.i.i.i.i, align 8
  %_M_weak_count.i.i.i.i = getelementptr inbounds i8, ptr %1, i64 12
  store i32 0, ptr %_M_weak_count.i.i.i.i, align 4
  %vtable.i.i.i.i = load ptr, ptr %1, align 8
  %vfn.i.i.i.i = getelementptr inbounds i8, ptr %vtable.i.i.i.i, i64 16
  %4 = load ptr, ptr %vfn.i.i.i.i, align 8
  call void %4(ptr noundef nonnull align 8 dereferenceable(16) %1) #23
  br label %if.end8.sink.split.i.i.i.i

if.end.i.i.i.i:                                   ; preds = %if.then.i.i.i
  %5 = load i8, ptr @__libc_single_threaded, align 1
  %tobool.i.not.i.i.i.i = icmp eq i8 %5, 0
  br i1 %tobool.i.not.i.i.i.i, label %if.else.i.i.i.i.i, label %if.then.i.i.i.i.i

if.then.i.i.i.i.i:                                ; preds = %if.end.i.i.i.i
  %add.i.i.i.i.i = add nsw i32 %3, -1
  store i32 %add.i.i.i.i.i, ptr %_M_use_count.i.i.i.i, align 4
  br label %_ZN9__gnu_cxx27__exchange_and_add_dispatchEPii.exit.i.i.i.i

if.else.i.i.i.i.i:                                ; preds = %if.end.i.i.i.i
  %6 = atomicrmw volatile add ptr %_M_use_count.i.i.i.i, i32 -1 acq_rel, align 4
  br label %_ZN9__gnu_cxx27__exchange_and_add_dispatchEPii.exit.i.i.i.i

_ZN9__gnu_cxx27__exchange_and_add_dispatchEPii.exit.i.i.i.i: ; preds = %if.else.i.i.i.i.i, %if.then.i.i.i.i.i
  %retval.i.0.i.i.i.i = phi i32 [ %3, %if.then.i.i.i.i.i ], [ %6, %if.else.i.i.i.i.i ]
  %cmp6.i.i.i.i = icmp eq i32 %retval.i.0.i.i.i.i, 1
  br i1 %cmp6.i.i.i.i, label %if.then7.i.i.i.i, label %_ZNSt10shared_ptrIN7openvdb5v11_04math7MapBaseEED2Ev.exit

if.then7.i.i.i.i:                                 ; preds = %_ZN9__gnu_cxx27__exchange_and_add_dispatchEPii.exit.i.i.i.i
  %vtable.i.i.i.i.i.i = load ptr, ptr %1, align 8
  %vfn.i.i.i.i.i.i = getelementptr inbounds i8, ptr %vtable.i.i.i.i.i.i, i64 16
  %7 = load ptr, ptr %vfn.i.i.i.i.i.i, align 8
  call void %7(ptr noundef nonnull align 8 dereferenceable(16) %1) #23
  %_M_weak_count.i.i.i.i.i.i = getelementptr inbounds i8, ptr %1, i64 12
  %8 = load i8, ptr @__libc_single_threaded, align 1
  %tobool.i.not.i.i.i.i.i.i = icmp eq i8 %8, 0
  br i1 %tobool.i.not.i.i.i.i.i.i, label %if.else.i.i.i.i.i.i.i, label %if.then.i.i.i.i.i.i.i

if.then.i.i.i.i.i.i.i:                            ; preds = %if.then7.i.i.i.i
  %9 = load i32, ptr %_M_weak_count.i.i.i.i.i.i, align 4
  %add.i.i.i.i.i.i.i = add nsw i32 %9, -1
  store i32 %add.i.i.i.i.i.i.i, ptr %_M_weak_count.i.i.i.i.i.i, align 4
  br label %_ZN9__gnu_cxx27__exchange_and_add_dispatchEPii.exit.i.i.i.i.i.i

if.else.i.i.i.i.i.i.i:                            ; preds = %if.then7.i.i.i.i
  %10 = atomicrmw volatile add ptr %_M_weak_count.i.i.i.i.i.i, i32 -1 acq_rel, align 4
  br label %_ZN9__gnu_cxx27__exchange_and_add_dispatchEPii.exit.i.i.i.i.i.i

_ZN9__gnu_cxx27__exchange_and_add_dispatchEPii.exit.i.i.i.i.i.i: ; preds = %if.else.i.i.i.i.i.i.i, %if.then.i.i.i.i.i.i.i
  %retval.i.0.i.i.i.i.i.i = phi i32 [ %9, %if.then.i.i.i.i.i.i.i ], [ %10, %if.else.i.i.i.i.i.i.i ]
  %cmp.i.i.i.i.i.i = icmp eq i32 %retval.i.0.i.i.i.i.i.i, 1
  br i1 %cmp.i.i.i.i.i.i, label %if.end8.sink.split.i.i.i.i, label %_ZNSt10shared_ptrIN7openvdb5v11_04math7MapBaseEED2Ev.exit

if.end8.sink.split.i.i.i.i:                       ; preds = %_ZN9__gnu_cxx27__exchange_and_add_dispatchEPii.exit.i.i.i.i.i.i, %if.then.i.i.i.i
  %vtable2.i.i.i.i.i.i = load ptr, ptr %1, align 8
  %vfn3.i.i.i.i.i.i = getelementptr inbounds i8, ptr %vtable2.i.i.i.i.i.i, i64 24
  %11 = load ptr, ptr %vfn3.i.i.i.i.i.i, align 8
  call void %11(ptr noundef nonnull align 8 dereferenceable(16) %1) #23
  br label %_ZNSt10shared_ptrIN7openvdb5v11_04math7MapBaseEED2Ev.exit

_ZNSt10shared_ptrIN7openvdb5v11_04math7MapBaseEED2Ev.exit: ; preds = %invoke.cont8, %_ZN9__gnu_cxx27__exchange_and_add_dispatchEPii.exit.i.i.i.i, %_ZN9__gnu_cxx27__exchange_and_add_dispatchEPii.exit.i.i.i.i.i.i, %if.end8.sink.split.i.i.i.i
  ret void

lpad:                                             ; preds = %.noexc, %entry
  %12 = landingpad { ptr, i32 }
          cleanup
  br label %cleanup.action

lpad3:                                            ; preds = %invoke.cont
  %13 = landingpad { ptr, i32 }
          cleanup
  br label %cleanup.action

ehcleanup9:                                       ; preds = %invoke.cont7
  %14 = landingpad { ptr, i32 }
          cleanup
  call void @_ZNSt10shared_ptrIN7openvdb5v11_04math7MapBaseEED2Ev(ptr noundef nonnull align 8 dereferenceable(16) %ref.tmp) #23
  br label %eh.resume

cleanup.action:                                   ; preds = %lpad3, %lpad, %ehcleanup9.thread12
  %.pn.pn11 = phi { ptr, i32 } [ %0, %ehcleanup9.thread12 ], [ %13, %lpad3 ], [ %12, %lpad ]
  call void @_ZdlPv(ptr noundef nonnull %call) #26
  br label %eh.resume

eh.resume:                                        ; preds = %ehcleanup9, %cleanup.action
  %.pn.pn10 = phi { ptr, i32 } [ %14, %ehcleanup9 ], [ %.pn.pn11, %cleanup.action ]
  resume { ptr, i32 } %.pn.pn10
}